target datalayout = "e-m:e-p270:32:32-p271:32:32-p272:64:64-i64:64-i128:128-f80:128-n8:16:32:64-S128"
target triple = "x86_64-unknown-linux-gnu"

%"class.icu_75::Locale" = type <{ %"class.icu_75::UObject", [12 x i8], [6 x i8], [4 x i8], [2 x i8], i32, [4 x i8], ptr, [157 x i8], [3 x i8], ptr, i8, [7 x i8] }>
%"class.icu_75::UObject" = type { ptr }

; Function Attrs: mustprogress nounwind uwtable
define noundef nonnull align 8 dereferenceable(217) ptr @_ZN6icu_756LocaleaSEOS0_(ptr noundef nonnull align 8 dereferenceable(217) %this, ptr noundef nonnull align 8 dereferenceable(217) %other) #0 align 2 personality ptr @__gxx_personality_v0 {
entry:
  %this.addr = alloca ptr, align 8
  %other.addr = alloca ptr, align 8
  store ptr %this, ptr %this.addr, align 8
  store ptr %other, ptr %other.addr, align 8
  %this1 = load ptr, ptr %this.addr, align 8
  %baseName = getelementptr inbounds %"class.icu_75::Locale", ptr %this1, i32 0, i32 10
  %0 = load ptr, ptr %baseName, align 8
  %fullName = getelementptr inbounds %"class.icu_75::Locale", ptr %this1, i32 0, i32 7
  %1 = load ptr, ptr %fullName, align 8
  %cmp = icmp ne ptr %0, %1
  br i1 %cmp, label %land.lhs.true, label %if.end

land.lhs.true:                                    ; preds = %entry
  %baseName2 = getelementptr inbounds %"class.icu_75::Locale", ptr %this1, i32 0, i32 10
  %2 = load ptr, ptr %baseName2, align 8
  %fullNameBuffer = getelementptr inbounds %"class.icu_75::Locale", ptr %this1, i32 0, i32 8
  %arraydecay = getelementptr inbounds [157 x i8], ptr %fullNameBuffer, i64 0, i64 0
  %cmp3 = icmp ne ptr %2, %arraydecay
  br i1 %cmp3, label %if.then, label %if.end

if.then:                                          ; preds = %land.lhs.true
  %baseName4 = getelementptr inbounds %"class.icu_75::Locale", ptr %this1, i32 0, i32 10
  %3 = load ptr, ptr %baseName4, align 8
  invoke void @uprv_free_75(ptr noundef %3)
          to label %invoke.cont unwind label %terminate.lpad

invoke.cont:                                      ; preds = %if.then
  br label %if.end

if.end:                                           ; preds = %invoke.cont, %land.lhs.true, %entry
  %fullName5 = getelementptr inbounds %"class.icu_75::Locale", ptr %this1, i32 0, i32 7
  %4 = load ptr, ptr %fullName5, align 8
  %fullNameBuffer6 = getelementptr inbounds %"class.icu_75::Locale", ptr %this1, i32 0, i32 8
  %arraydecay7 = getelementptr inbounds [157 x i8], ptr %fullNameBuffer6, i64 0, i64 0
  %cmp8 = icmp ne ptr %4, %arraydecay7
  br i1 %cmp8, label %if.then9, label %if.end12

if.then9:                                         ; preds = %if.end
  %fullName10 = getelementptr inbounds %"class.icu_75::Locale", ptr %this1, i32 0, i32 7
  %5 = load ptr, ptr %fullName10, align 8
  invoke void @uprv_free_75(ptr noundef %5)
          to label %invoke.cont11 unwind label %terminate.lpad

invoke.cont11:                                    ; preds = %if.then9
  br label %if.end12

if.end12:                                         ; preds = %invoke.cont11, %if.end
  %6 = load ptr, ptr %other.addr, align 8
  %fullName13 = getelementptr inbounds %"class.icu_75::Locale", ptr %6, i32 0, i32 7
  %7 = load ptr, ptr %fullName13, align 8
  %8 = load ptr, ptr %other.addr, align 8
  %fullNameBuffer14 = getelementptr inbounds %"class.icu_75::Locale", ptr %8, i32 0, i32 8
  %arraydecay15 = getelementptr inbounds [157 x i8], ptr %fullNameBuffer14, i64 0, i64 0
  %cmp16 = icmp eq ptr %7, %arraydecay15
  br i1 %cmp16, label %if.then21, label %lor.lhs.false

lor.lhs.false:                                    ; preds = %if.end12
  %9 = load ptr, ptr %other.addr, align 8
  %baseName17 = getelementptr inbounds %"class.icu_75::Locale", ptr %9, i32 0, i32 10
  %10 = load ptr, ptr %baseName17, align 8
  %11 = load ptr, ptr %other.addr, align 8
  %fullNameBuffer18 = getelementptr inbounds %"class.icu_75::Locale", ptr %11, i32 0, i32 8
  %arraydecay19 = getelementptr inbounds [157 x i8], ptr %fullNameBuffer18, i64 0, i64 0
  %cmp20 = icmp eq ptr %10, %arraydecay19
  br i1 %cmp20, label %if.then21, label %if.end26

if.then21:                                        ; preds = %lor.lhs.false, %if.end12
  %fullNameBuffer22 = getelementptr inbounds %"class.icu_75::Locale", ptr %this1, i32 0, i32 8
  %arraydecay23 = getelementptr inbounds [157 x i8], ptr %fullNameBuffer22, i64 0, i64 0
  %12 = load ptr, ptr %other.addr, align 8
  %fullNameBuffer24 = getelementptr inbounds %"class.icu_75::Locale", ptr %12, i32 0, i32 8
  %arraydecay25 = getelementptr inbounds [157 x i8], ptr %fullNameBuffer24, i64 0, i64 0
  %call = call ptr @strcpy(ptr noundef %arraydecay23, ptr noundef %arraydecay25) #10
  br label %if.end26

if.end26:                                         ; preds = %if.then21, %lor.lhs.false
  %13 = load ptr, ptr %other.addr, align 8
  %fullName27 = getelementptr inbounds %"class.icu_75::Locale", ptr %13, i32 0, i32 7
  %14 = load ptr, ptr %fullName27, align 8
  %15 = load ptr, ptr %other.addr, align 8
  %fullNameBuffer28 = getelementptr inbounds %"class.icu_75::Locale", ptr %15, i32 0, i32 8
  %arraydecay29 = getelementptr inbounds [157 x i8], ptr %fullNameBuffer28, i64 0, i64 0
  %cmp30 = icmp eq ptr %14, %arraydecay29
  br i1 %cmp30, label %if.then31, label %if.else

if.then31:                                        ; preds = %if.end26
  %fullNameBuffer32 = getelementptr inbounds %"class.icu_75::Locale", ptr %this1, i32 0, i32 8
  %arraydecay33 = getelementptr inbounds [157 x i8], ptr %fullNameBuffer32, i64 0, i64 0
  %fullName34 = getelementptr inbounds %"class.icu_75::Locale", ptr %this1, i32 0, i32 7
  store ptr %arraydecay33, ptr %fullName34, align 8
  br label %if.end37

if.else:                                          ; preds = %if.end26
  %16 = load ptr, ptr %other.addr, align 8
  %fullName35 = getelementptr inbounds %"class.icu_75::Locale", ptr %16, i32 0, i32 7
  %17 = load ptr, ptr %fullName35, align 8
  %fullName36 = getelementptr inbounds %"class.icu_75::Locale", ptr %this1, i32 0, i32 7
  store ptr %17, ptr %fullName36, align 8
  br label %if.end37

if.end37:                                         ; preds = %if.else, %if.then31
  %18 = load ptr, ptr %other.addr, align 8
  %baseName38 = getelementptr inbounds %"class.icu_75::Locale", ptr %18, i32 0, i32 10
  %19 = load ptr, ptr %baseName38, align 8
  %20 = load ptr, ptr %other.addr, align 8
  %fullNameBuffer39 = getelementptr inbounds %"class.icu_75::Locale", ptr %20, i32 0, i32 8
  %arraydecay40 = getelementptr inbounds [157 x i8], ptr %fullNameBuffer39, i64 0, i64 0
  %cmp41 = icmp eq ptr %19, %arraydecay40
  br i1 %cmp41, label %if.then42, label %if.else46

if.then42:                                        ; preds = %if.end37
  %fullNameBuffer43 = getelementptr inbounds %"class.icu_75::Locale", ptr %this1, i32 0, i32 8
  %arraydecay44 = getelementptr inbounds [157 x i8], ptr %fullNameBuffer43, i64 0, i64 0
  %baseName45 = getelementptr inbounds %"class.icu_75::Locale", ptr %this1, i32 0, i32 10
  store ptr %arraydecay44, ptr %baseName45, align 8
  br label %if.end57

if.else46:                                        ; preds = %if.end37
  %21 = load ptr, ptr %other.addr, align 8
  %baseName47 = getelementptr inbounds %"class.icu_75::Locale", ptr %21, i32 0, i32 10
  %22 = load ptr, ptr %baseName47, align 8
  %23 = load ptr, ptr %other.addr, align 8
  %fullName48 = getelementptr inbounds %"class.icu_75::Locale", ptr %23, i32 0, i32 7
  %24 = load ptr, ptr %fullName48, align 8
  %cmp49 = icmp eq ptr %22, %24
  br i1 %cmp49, label %if.then50, label %if.else53

if.then50:                                        ; preds = %if.else46
  %fullName51 = getelementptr inbounds %"class.icu_75::Locale", ptr %this1, i32 0, i32 7
  %25 = load ptr, ptr %fullName51, align 8
  %baseName52 = getelementptr inbounds %"class.icu_75::Locale", ptr %this1, i32 0, i32 10
  store ptr %25, ptr %baseName52, align 8
  br label %if.end56

if.else53:                                        ; preds = %if.else46
  %26 = load ptr, ptr %other.addr, align 8
  %baseName54 = getelementptr inbounds %"class.icu_75::Locale", ptr %26, i32 0, i32 10
  %27 = load ptr, ptr %baseName54, align 8
  %baseName55 = getelementptr inbounds %"class.icu_75::Locale", ptr %this1, i32 0, i32 10
  store ptr %27, ptr %baseName55, align 8
  br label %if.end56

if.end56:                                         ; preds = %if.else53, %if.then50
  br label %if.end57

if.end57:                                         ; preds = %if.end56, %if.then42
  %language = getelementptr inbounds %"class.icu_75::Locale", ptr %this1, i32 0, i32 1
  %arraydecay58 = getelementptr inbounds [12 x i8], ptr %language, i64 0, i64 0
  %28 = load ptr, ptr %other.addr, align 8
  %language59 = getelementptr inbounds %"class.icu_75::Locale", ptr %28, i32 0, i32 1
  %arraydecay60 = getelementptr inbounds [12 x i8], ptr %language59, i64 0, i64 0
  %call61 = call ptr @strcpy(ptr noundef %arraydecay58, ptr noundef %arraydecay60) #10
  %script = getelementptr inbounds %"class.icu_75::Locale", ptr %this1, i32 0, i32 2
  %arraydecay62 = getelementptr inbounds [6 x i8], ptr %script, i64 0, i64 0
  %29 = load ptr, ptr %other.addr, align 8
  %script63 = getelementptr inbounds %"class.icu_75::Locale", ptr %29, i32 0, i32 2
  %arraydecay64 = getelementptr inbounds [6 x i8], ptr %script63, i64 0, i64 0
  %call65 = call ptr @strcpy(ptr noundef %arraydecay62, ptr noundef %arraydecay64) #10
  %country = getelementptr inbounds %"class.icu_75::Locale", ptr %this1, i32 0, i32 3
  %arraydecay66 = getelementptr inbounds [4 x i8], ptr %country, i64 0, i64 0
  %30 = load ptr, ptr %other.addr, align 8
  %country67 = getelementptr inbounds %"class.icu_75::Locale", ptr %30, i32 0, i32 3
  %arraydecay68 = getelementptr inbounds [4 x i8], ptr %country67, i64 0, i64 0
  %call69 = call ptr @strcpy(ptr noundef %arraydecay66, ptr noundef %arraydecay68) #10
  %31 = load ptr, ptr %other.addr, align 8
  %variantBegin = getelementptr inbounds %"class.icu_75::Locale", ptr %31, i32 0, i32 5
  %32 = load i32, ptr %variantBegin, align 8
  %variantBegin70 = getelementptr inbounds %"class.icu_75::Locale", ptr %this1, i32 0, i32 5
  store i32 %32, ptr %variantBegin70, align 8
  %33 = load ptr, ptr %other.addr, align 8
  %fIsBogus = getelementptr inbounds %"class.icu_75::Locale", ptr %33, i32 0, i32 11
  %34 = load i8, ptr %fIsBogus, align 8
  %fIsBogus71 = getelementptr inbounds %"class.icu_75::Locale", ptr %this1, i32 0, i32 11
  store i8 %34, ptr %fIsBogus71, align 8
  %35 = load ptr, ptr %other.addr, align 8
  %fullNameBuffer72 = getelementptr inbounds %"class.icu_75::Locale", ptr %35, i32 0, i32 8
  %arraydecay73 = getelementptr inbounds [157 x i8], ptr %fullNameBuffer72, i64 0, i64 0
  %36 = load ptr, ptr %other.addr, align 8
  %fullName74 = getelementptr inbounds %"class.icu_75::Locale", ptr %36, i32 0, i32 7
  store ptr %arraydecay73, ptr %fullName74, align 8
  %37 = load ptr, ptr %other.addr, align 8
  %baseName75 = getelementptr inbounds %"class.icu_75::Locale", ptr %37, i32 0, i32 10
  store ptr %arraydecay73, ptr %baseName75, align 8
  ret ptr %this1

terminate.lpad:                                   ; preds = %if.then9, %if.then
  %38 = landingpad { ptr, i32 }
          catch ptr null
  %39 = extractvalue { ptr, i32 } %38, 0
  call void @__clang_call_terminate(ptr %39) #12
  unreachable
}