; Function Attrs: mustprogress nounwind uwtable
define noundef nonnull align 8 dereferenceable(217) ptr @_ZN6icu_756LocaleaSEOS0_(ptr noundef nonnull returned align 8 dereferenceable(217) %this, ptr noundef nonnull align 8 dereferenceable(217) %other) local_unnamed_addr #0 align 2 personality ptr @__gxx_personality_v0 {
entry:
  %baseName = getelementptr inbounds i8, ptr %this, i64 208
  %0 = load ptr, ptr %baseName, align 8
  %fullName = getelementptr inbounds i8, ptr %this, i64 40
  %1 = load ptr, ptr %fullName, align 8
  %cmp.not = icmp eq ptr %0, %1
  %fullNameBuffer = getelementptr inbounds i8, ptr %this, i64 48
  %cmp3.not = icmp eq ptr %0, %fullNameBuffer
  %or.cond = select i1 %cmp.not, i1 true, i1 %cmp3.not
  br i1 %or.cond, label %if.end, label %if.then

if.then:                                          ; preds = %entry
  invoke void @uprv_free_75(ptr noundef %0)
          to label %if.then.if.end_crit_edge unwind label %terminate.lpad

if.then.if.end_crit_edge:                         ; preds = %if.then
  %.pre = load ptr, ptr %fullName, align 8
  br label %if.end

if.end:                                           ; preds = %if.then.if.end_crit_edge, %entry
  %2 = phi ptr [ %.pre, %if.then.if.end_crit_edge ], [ %1, %entry ]
  %cmp8.not = icmp eq ptr %2, %fullNameBuffer
  br i1 %cmp8.not, label %if.end12, label %if.then9

if.then9:                                         ; preds = %if.end
  invoke void @uprv_free_75(ptr noundef %2)
          to label %if.end12 unwind label %terminate.lpad

if.end12:                                         ; preds = %if.then9, %if.end
  %fullName13 = getelementptr inbounds i8, ptr %other, i64 40
  %3 = load ptr, ptr %fullName13, align 8
  %fullNameBuffer14 = getelementptr inbounds i8, ptr %other, i64 48
  %cmp16 = icmp eq ptr %3, %fullNameBuffer14
  %baseName17 = getelementptr inbounds i8, ptr %other, i64 208
  %4 = load ptr, ptr %baseName17, align 8
  %cmp20 = icmp eq ptr %4, %fullNameBuffer14
  %or.cond24 = select i1 %cmp16, i1 true, i1 %cmp20
  br i1 %or.cond24, label %if.then21, label %if.end26

if.then21:                                        ; preds = %if.end12
  %call = tail call ptr @strcpy(ptr noundef nonnull dereferenceable(1) %fullNameBuffer, ptr noundef nonnull dereferenceable(1) %fullNameBuffer14) #20
  %.pre25 = load ptr, ptr %fullName13, align 8
  br label %if.end26

if.end26:                                         ; preds = %if.end12, %if.then21
  %5 = phi ptr [ %3, %if.end12 ], [ %.pre25, %if.then21 ]
  %cmp30 = icmp eq ptr %5, %fullNameBuffer14
  %fullNameBuffer6. = select i1 %cmp30, ptr %fullNameBuffer, ptr %5
  store ptr %fullNameBuffer6., ptr %fullName, align 8
  %6 = load ptr, ptr %baseName17, align 8
  %cmp41 = icmp eq ptr %6, %fullNameBuffer14
  %7 = load ptr, ptr %fullName13, align 8
  %cmp49 = icmp eq ptr %6, %7
  %fullNameBuffer6.. = select i1 %cmp49, ptr %fullNameBuffer6., ptr %6
  %fullNameBuffer6..sink = select i1 %cmp41, ptr %fullNameBuffer, ptr %fullNameBuffer6..
  store ptr %fullNameBuffer6..sink, ptr %baseName, align 8
  %language = getelementptr inbounds i8, ptr %this, i64 8
  %language59 = getelementptr inbounds i8, ptr %other, i64 8
  %call61 = tail call ptr @strcpy(ptr noundef nonnull dereferenceable(1) %language, ptr noundef nonnull dereferenceable(1) %language59) #20
  %script = getelementptr inbounds i8, ptr %this, i64 20
  %script63 = getelementptr inbounds i8, ptr %other, i64 20
  %call65 = tail call ptr @strcpy(ptr noundef nonnull dereferenceable(1) %script, ptr noundef nonnull dereferenceable(1) %script63) #20
  %country = getelementptr inbounds i8, ptr %this, i64 26
  %country67 = getelementptr inbounds i8, ptr %other, i64 26
  %call69 = tail call ptr @strcpy(ptr noundef nonnull dereferenceable(1) %country, ptr noundef nonnull dereferenceable(1) %country67) #20
  %variantBegin = getelementptr inbounds i8, ptr %other, i64 32
  %8 = load i32, ptr %variantBegin, align 8
  %variantBegin70 = getelementptr inbounds i8, ptr %this, i64 32
  store i32 %8, ptr %variantBegin70, align 8
  %fIsBogus = getelementptr inbounds i8, ptr %other, i64 216
  %9 = load i8, ptr %fIsBogus, align 8
  %fIsBogus71 = getelementptr inbounds i8, ptr %this, i64 216
  store i8 %9, ptr %fIsBogus71, align 8
  store ptr %fullNameBuffer14, ptr %fullName13, align 8
  store ptr %fullNameBuffer14, ptr %baseName17, align 8
  ret ptr %this

terminate.lpad:                                   ; preds = %if.then9, %if.then
  %10 = landingpad { ptr, i32 }
          catch ptr null
  %11 = extractvalue { ptr, i32 } %10, 0
  tail call void @__clang_call_terminate(ptr %11) #22
  unreachable
}